; Function Attrs: mustprogress nounwind uwtable
define hidden void @_ZN19OpenColorIO_v2_4dev18NamedTransformImpl15clearCategoriesEv(ptr nocapture noundef nonnull align 8 dereferenceable(224) %this) unnamed_addr #3 align 2 personality ptr @__gxx_personality_v0 {
entry:
  %m_tokens.i = getelementptr inbounds i8, ptr %this, i64 168
  %0 = load ptr, ptr %m_tokens.i, align 8
  %_M_finish.i.i.i = getelementptr inbounds i8, ptr %this, i64 176
  %1 = load ptr, ptr %_M_finish.i.i.i, align 8
  %tobool.not.i.i.i = icmp eq ptr %1, %0
  br i1 %tobool.not.i.i.i, label %_ZN19OpenColorIO_v2_4dev13TokensManager11clearTokensEv.exit, label %for.body.i.i.i.i.i.i

for.body.i.i.i.i.i.i:                             ; preds = %entry, %for.body.i.i.i.i.i.i
  %__first.addr.04.i.i.i.i.i.i = phi ptr [ %incdec.ptr.i.i.i.i.i.i, %for.body.i.i.i.i.i.i ], [ %0, %entry ]
  tail call void @_ZNSt7__cxx1112basic_stringIcSt11char_traitsIcESaIcEED1Ev(ptr noundef nonnull align 8 dereferenceable(32) %__first.addr.04.i.i.i.i.i.i) #17
  %incdec.ptr.i.i.i.i.i.i = getelementptr inbounds i8, ptr %__first.addr.04.i.i.i.i.i.i, i64 32
  %cmp.not.i.i.i.i.i.i = icmp eq ptr %incdec.ptr.i.i.i.i.i.i, %1
  br i1 %cmp.not.i.i.i.i.i.i, label %invoke.cont.i.i.i, label %for.body.i.i.i.i.i.i, !llvm.loop !7

invoke.cont.i.i.i:                                ; preds = %for.body.i.i.i.i.i.i
  store ptr %0, ptr %_M_finish.i.i.i, align 8
  br label %_ZN19OpenColorIO_v2_4dev13TokensManager11clearTokensEv.exit

_ZN19OpenColorIO_v2_4dev13TokensManager11clearTokensEv.exit: ; preds = %entry, %invoke.cont.i.i.i
  ret void
}